target datalayout = "e-m:e-p270:32:32-p271:32:32-p272:64:64-i64:64-i128:128-f80:128-n8:16:32:64-S128"
target triple = "x86_64-pc-linux-gnu"

@_ZN6icu_7713ListFormatter16ListPatternsSinkD1Ev = hidden unnamed_addr alias void (ptr), ptr @_ZN6icu_7713ListFormatter16ListPatternsSinkD2Ev

; Function Attrs: mustprogress nounwind uwtable
define hidden void @_ZN6icu_7713ListFormatter16ListPatternsSinkD0Ev(ptr noundef nonnull align 8 dereferenceable(289) %0) unnamed_addr #0 align 2 {
  %2 = alloca ptr, align 8
  store ptr %0, ptr %2, align 8, !tbaa !78
  %3 = load ptr, ptr %2, align 8
  call void @_ZN6icu_7713ListFormatter16ListPatternsSinkD1Ev(ptr noundef nonnull align 8 dereferenceable(289) %3) #12
  call void @_ZN6icu_777UMemorydlEPv(ptr noundef %3) #12
  ret void
}