; Function Attrs: mustprogress nounwind uwtable
define hidden void @_ZN6icu_7713ListFormatter16ListPatternsSinkD0Ev(ptr noundef nonnull align 8 dereferenceable(289) initializes((0, 8)) %0) unnamed_addr #0 align 2 {
  store ptr getelementptr inbounds nuw inrange(-16, 32) (i8, ptr @_ZTVN6icu_7713ListFormatter16ListPatternsSinkE, i64 16), ptr %0, align 8, !tbaa !15
  %2 = getelementptr inbounds nuw i8, ptr %0, i64 200
  tail call void @_ZN6icu_7713UnicodeStringD1Ev(ptr noundef nonnull align 8 dereferenceable(64) %2) #19
  %3 = getelementptr inbounds nuw i8, ptr %0, i64 136
  tail call void @_ZN6icu_7713UnicodeStringD1Ev(ptr noundef nonnull align 8 dereferenceable(64) %3) #19
  %4 = getelementptr inbounds nuw i8, ptr %0, i64 72
  tail call void @_ZN6icu_7713UnicodeStringD1Ev(ptr noundef nonnull align 8 dereferenceable(64) %4) #19
  %5 = getelementptr inbounds nuw i8, ptr %0, i64 8
  tail call void @_ZN6icu_7713UnicodeStringD1Ev(ptr noundef nonnull align 8 dereferenceable(64) %5) #19
  tail call void @_ZN6icu_7712ResourceSinkD2Ev(ptr noundef nonnull align 8 dereferenceable(289) %0) #19
  tail call void @_ZN6icu_777UMemorydlEPv(ptr noundef nonnull %0) #19
  ret void
}